; Function Attrs: nounwind uwtable
define void @Nwk_ObjTransferFanout(ptr noundef %0, ptr noundef %1) local_unnamed_addr #0 {
  %3 = load ptr, ptr %0, align 8
  %4 = getelementptr inbounds nuw i8, ptr %3, i64 96
  %5 = load ptr, ptr %4, align 8
  tail call void @Nwk_ObjCollectFanouts(ptr noundef nonnull %0, ptr noundef %5)
  %6 = getelementptr i8, ptr %5, i64 4
  %.val1113 = load i32, ptr %6, align 4
  %7 = icmp sgt i32 %.val1113, 0
  br i1 %7, label %.lr.ph, label %.critedge

.lr.ph:                                           ; preds = %2
  %8 = getelementptr i8, ptr %5, i64 8
  br label %9

9:                                                ; preds = %.lr.ph, %9
  %indvars.iv = phi i64 [ 0, %.lr.ph ], [ %indvars.iv.next, %9 ]
  %.val12 = load ptr, ptr %8, align 8
  %10 = getelementptr inbounds nuw ptr, ptr %.val12, i64 %indvars.iv
  %11 = load ptr, ptr %10, align 8
  tail call void @Nwk_ObjPatchFanin(ptr noundef %11, ptr noundef nonnull %0, ptr noundef %1)
  %indvars.iv.next = add nuw nsw i64 %indvars.iv, 1
  %.val11 = load i32, ptr %6, align 4
  %12 = sext i32 %.val11 to i64
  %13 = icmp slt i64 %indvars.iv.next, %12
  br i1 %13, label %9, label %.critedge, !llvm.loop !13

.critedge:                                        ; preds = %9, %2
  ret void
}